target datalayout = "e-m:e-p270:32:32-p271:32:32-p272:64:64-i64:64-i128:128-f80:128-n8:16:32:64-S128"
target triple = "x86_64-pc-linux-gnu"

%struct.construct_data_st = type { ptr, ptr, i32, i32, ptr, ptr }
%struct.ossl_method_construct_method_st = type { ptr, ptr, ptr, ptr, ptr, ptr, ptr }
%struct.ossl_algorithm_st = type { ptr, ptr, ptr, ptr }

; Function Attrs: nounwind uwtable
define internal void @ossl_method_construct_this(ptr noundef %0, ptr noundef %1, i32 noundef %2, ptr noundef %3) #0 {
  %5 = alloca ptr, align 8
  %6 = alloca ptr, align 8
  %7 = alloca i32, align 4
  %8 = alloca ptr, align 8
  %9 = alloca ptr, align 8
  %10 = alloca ptr, align 8
  %11 = alloca i32, align 4
  store ptr %0, ptr %5, align 8, !tbaa !15
  store ptr %1, ptr %6, align 8, !tbaa !31
  store i32 %2, ptr %7, align 4, !tbaa !8
  store ptr %3, ptr %8, align 8, !tbaa !14
  call void @llvm.lifetime.start.p0(i64 8, ptr %9) #4
  %12 = load ptr, ptr %8, align 8, !tbaa !14
  store ptr %12, ptr %9, align 8, !tbaa !27
  call void @llvm.lifetime.start.p0(i64 8, ptr %10) #4
  store ptr null, ptr %10, align 8, !tbaa !14
  %13 = load ptr, ptr %9, align 8, !tbaa !27
  %14 = getelementptr inbounds nuw %struct.construct_data_st, ptr %13, i32 0, i32 4
  %15 = load ptr, ptr %14, align 8, !tbaa !21
  %16 = getelementptr inbounds nuw %struct.ossl_method_construct_method_st, ptr %15, i32 0, i32 5
  %17 = load ptr, ptr %16, align 8, !tbaa !33
  %18 = load ptr, ptr %6, align 8, !tbaa !31
  %19 = load ptr, ptr %5, align 8, !tbaa !15
  %20 = load ptr, ptr %9, align 8, !tbaa !27
  %21 = getelementptr inbounds nuw %struct.construct_data_st, ptr %20, i32 0, i32 5
  %22 = load ptr, ptr %21, align 8, !tbaa !22
  %23 = call ptr %17(ptr noundef %18, ptr noundef %19, ptr noundef %22)
  store ptr %23, ptr %10, align 8, !tbaa !14
  %24 = icmp eq ptr %23, null
  br i1 %24, label %25, label %26

25:                                               ; preds = %4
  store i32 1, ptr %11, align 4
  br label %62

26:                                               ; preds = %4
  %27 = load ptr, ptr %9, align 8, !tbaa !27
  %28 = getelementptr inbounds nuw %struct.construct_data_st, ptr %27, i32 0, i32 4
  %29 = load ptr, ptr %28, align 8, !tbaa !21
  %30 = getelementptr inbounds nuw %struct.ossl_method_construct_method_st, ptr %29, i32 0, i32 4
  %31 = load ptr, ptr %30, align 8, !tbaa !34
  %32 = load i32, ptr %7, align 4, !tbaa !8
  %33 = icmp ne i32 %32, 0
  br i1 %33, label %34, label %38

34:                                               ; preds = %26
  %35 = load ptr, ptr %9, align 8, !tbaa !27
  %36 = getelementptr inbounds nuw %struct.construct_data_st, ptr %35, i32 0, i32 1
  %37 = load ptr, ptr %36, align 8, !tbaa !17
  br label %39

38:                                               ; preds = %26
  br label %39

39:                                               ; preds = %38, %34
  %40 = phi ptr [ %37, %34 ], [ null, %38 ]
  %41 = load ptr, ptr %10, align 8, !tbaa !14
  %42 = load ptr, ptr %5, align 8, !tbaa !15
  %43 = load ptr, ptr %6, align 8, !tbaa !31
  %44 = getelementptr inbounds nuw %struct.ossl_algorithm_st, ptr %43, i32 0, i32 0
  %45 = load ptr, ptr %44, align 8, !tbaa !35
  %46 = load ptr, ptr %6, align 8, !tbaa !31
  %47 = getelementptr inbounds nuw %struct.ossl_algorithm_st, ptr %46, i32 0, i32 1
  %48 = load ptr, ptr %47, align 8, !tbaa !39
  %49 = load ptr, ptr %9, align 8, !tbaa !27
  %50 = getelementptr inbounds nuw %struct.construct_data_st, ptr %49, i32 0, i32 5
  %51 = load ptr, ptr %50, align 8, !tbaa !22
  %52 = call i32 %31(ptr noundef %40, ptr noundef %41, ptr noundef %42, ptr noundef %45, ptr noundef %48, ptr noundef %51)
  %53 = load ptr, ptr %9, align 8, !tbaa !27
  %54 = getelementptr inbounds nuw %struct.construct_data_st, ptr %53, i32 0, i32 4
  %55 = load ptr, ptr %54, align 8, !tbaa !21
  %56 = getelementptr inbounds nuw %struct.ossl_method_construct_method_st, ptr %55, i32 0, i32 6
  %57 = load ptr, ptr %56, align 8, !tbaa !40
  %58 = load ptr, ptr %10, align 8, !tbaa !14
  %59 = load ptr, ptr %9, align 8, !tbaa !27
  %60 = getelementptr inbounds nuw %struct.construct_data_st, ptr %59, i32 0, i32 5
  %61 = load ptr, ptr %60, align 8, !tbaa !22
  call void %57(ptr noundef %58, ptr noundef %61)
  store i32 0, ptr %11, align 4
  br label %62

62:                                               ; preds = %39, %25
  call void @llvm.lifetime.end.p0(i64 8, ptr %10) #4
  call void @llvm.lifetime.end.p0(i64 8, ptr %9) #4
  %63 = load i32, ptr %11, align 4
  switch i32 %63, label %65 [
    i32 0, label %64
    i32 1, label %64
  ]

64:                                               ; preds = %62, %62
  ret void

65:                                               ; preds = %62
  unreachable
}