; Function Attrs: nounwind uwtable
define internal void @ossl_method_construct_this(ptr noundef %0, ptr noundef %1, i32 noundef %2, ptr noundef readonly captures(none) %3) #0 {
  %5 = getelementptr inbounds nuw i8, ptr %3, i64 24
  %6 = load ptr, ptr %5, align 8, !tbaa !15
  %7 = getelementptr inbounds nuw i8, ptr %6, i64 40
  %8 = load ptr, ptr %7, align 8, !tbaa !23
  %9 = getelementptr inbounds nuw i8, ptr %3, i64 32
  %10 = load ptr, ptr %9, align 8, !tbaa !16
  %11 = tail call ptr %8(ptr noundef %1, ptr noundef %0, ptr noundef %10) #3
  %12 = icmp eq ptr %11, null
  br i1 %12, label %31, label %13

13:                                               ; preds = %4
  %14 = load ptr, ptr %5, align 8, !tbaa !15
  %15 = getelementptr inbounds nuw i8, ptr %14, i64 32
  %16 = load ptr, ptr %15, align 8, !tbaa !24
  %.not = icmp eq i32 %2, 0
  br i1 %.not, label %20, label %17

17:                                               ; preds = %13
  %18 = getelementptr inbounds nuw i8, ptr %3, i64 8
  %19 = load ptr, ptr %18, align 8, !tbaa !8
  br label %20

20:                                               ; preds = %13, %17
  %21 = phi ptr [ %19, %17 ], [ null, %13 ]
  %22 = load ptr, ptr %1, align 8, !tbaa !25
  %23 = getelementptr inbounds nuw i8, ptr %1, i64 8
  %24 = load ptr, ptr %23, align 8, !tbaa !29
  %25 = load ptr, ptr %9, align 8, !tbaa !16
  %26 = tail call i32 %16(ptr noundef %21, ptr noundef nonnull %11, ptr noundef %0, ptr noundef %22, ptr noundef %24, ptr noundef %25) #3
  %27 = load ptr, ptr %5, align 8, !tbaa !15
  %28 = getelementptr inbounds nuw i8, ptr %27, i64 48
  %29 = load ptr, ptr %28, align 8, !tbaa !30
  %30 = load ptr, ptr %9, align 8, !tbaa !16
  tail call void %29(ptr noundef nonnull %11, ptr noundef %30) #3
  br label %31

31:                                               ; preds = %4, %20
  ret void
}